target datalayout = "e-m:e-p270:32:32-p271:32:32-p272:64:64-i64:64-i128:128-f80:128-n8:16:32:64-S128"
target triple = "x86_64-unknown-linux-gnu"

%struct.ParallelsHeader = type <{ [16 x i8], i32, i32, i32, i32, i32, i64, i32, i32, i32, i64 }>

@.str.9 = private unnamed_addr constant [17 x i8] c"WithoutFreeSpace\00", align 1
@.str.10 = private unnamed_addr constant [17 x i8] c"WithouFreSpacExt\00", align 1

; Function Attrs: nounwind sspstrong uwtable
define internal i32 @le32_to_cpu(i32 noundef %v) #0 {
entry:
  %v.addr = alloca i32, align 4
  store i32 %v, ptr %v.addr, align 4
  %0 = load i32, ptr %v.addr, align 4
  ret i32 %0
}

; Function Attrs: nounwind sspstrong uwtable
define internal i32 @parallels_probe(ptr noundef %buf, i32 noundef %buf_size, ptr noundef %filename) #0 {
entry:
  %retval = alloca i32, align 4
  %buf.addr = alloca ptr, align 8
  %buf_size.addr = alloca i32, align 4
  %filename.addr = alloca ptr, align 8
  %ph = alloca ptr, align 8
  store ptr %buf, ptr %buf.addr, align 8
  store i32 %buf_size, ptr %buf_size.addr, align 4
  store ptr %filename, ptr %filename.addr, align 8
  %0 = load ptr, ptr %buf.addr, align 8
  store ptr %0, ptr %ph, align 8
  %1 = load i32, ptr %buf_size.addr, align 4
  %conv = sext i32 %1 to i64
  %cmp = icmp ult i64 %conv, 64
  br i1 %cmp, label %if.then, label %if.end

if.then:                                          ; preds = %entry
  store i32 0, ptr %retval, align 4
  br label %return

if.end:                                           ; preds = %entry
  %2 = load ptr, ptr %ph, align 8
  %magic = getelementptr inbounds %struct.ParallelsHeader, ptr %2, i32 0, i32 0
  %arraydecay = getelementptr inbounds [16 x i8], ptr %magic, i64 0, i64 0
  %call = call i32 @memcmp(ptr noundef %arraydecay, ptr noundef @.str.9, i64 noundef 16) #9
  %tobool = icmp ne i32 %call, 0
  br i1 %tobool, label %lor.lhs.false, label %land.lhs.true

lor.lhs.false:                                    ; preds = %if.end
  %3 = load ptr, ptr %ph, align 8
  %magic2 = getelementptr inbounds %struct.ParallelsHeader, ptr %3, i32 0, i32 0
  %arraydecay3 = getelementptr inbounds [16 x i8], ptr %magic2, i64 0, i64 0
  %call4 = call i32 @memcmp(ptr noundef %arraydecay3, ptr noundef @.str.10, i64 noundef 16) #9
  %tobool5 = icmp ne i32 %call4, 0
  br i1 %tobool5, label %if.end10, label %land.lhs.true

land.lhs.true:                                    ; preds = %lor.lhs.false, %if.end
  %4 = load ptr, ptr %ph, align 8
  %version = getelementptr inbounds %struct.ParallelsHeader, ptr %4, i32 0, i32 1
  %5 = load i32, ptr %version, align 1
  %call6 = call i32 @le32_to_cpu(i32 noundef %5)
  %cmp7 = icmp eq i32 %call6, 2
  br i1 %cmp7, label %if.then9, label %if.end10

if.then9:                                         ; preds = %land.lhs.true
  store i32 100, ptr %retval, align 4
  br label %return

if.end10:                                         ; preds = %land.lhs.true, %lor.lhs.false
  store i32 0, ptr %retval, align 4
  br label %return

return:                                           ; preds = %if.end10, %if.then9, %if.then
  %6 = load i32, ptr %retval, align 4
  ret i32 %6
}