; Function Attrs: mustprogress nofree nounwind sspstrong willreturn memory(argmem: read) uwtable
define internal range(i32 0, 101) i32 @parallels_probe(ptr noundef readonly captures(none) %buf, i32 noundef %buf_size, ptr readnone captures(none) %filename) #2 {
entry:
  %cmp = icmp ult i32 %buf_size, 64
  br i1 %cmp, label %return, label %if.end

if.end:                                           ; preds = %entry
  %bcmp = tail call i32 @bcmp(ptr noundef nonnull dereferenceable(16) %buf, ptr noundef nonnull dereferenceable(16) @.str.9, i64 16)
  %tobool.not = icmp eq i32 %bcmp, 0
  br i1 %tobool.not, label %land.lhs.true, label %lor.lhs.false

lor.lhs.false:                                    ; preds = %if.end
  %bcmp3 = tail call i32 @bcmp(ptr noundef nonnull dereferenceable(16) %buf, ptr noundef nonnull dereferenceable(16) @.str.10, i64 16)
  %tobool5.not = icmp eq i32 %bcmp3, 0
  br i1 %tobool5.not, label %land.lhs.true, label %if.end10

land.lhs.true:                                    ; preds = %lor.lhs.false, %if.end
  %version = getelementptr inbounds nuw i8, ptr %buf, i64 16
  %0 = load i32, ptr %version, align 1
  %cmp7 = icmp eq i32 %0, 2
  br i1 %cmp7, label %return, label %if.end10

if.end10:                                         ; preds = %land.lhs.true, %lor.lhs.false
  br label %return

return:                                           ; preds = %land.lhs.true, %entry, %if.end10
  %retval.0 = phi i32 [ 0, %if.end10 ], [ 0, %entry ], [ 100, %land.lhs.true ]
  ret i32 %retval.0
}